target datalayout = "e-m:e-p270:32:32-p271:32:32-p272:64:64-i64:64-i128:128-f80:128-n8:16:32:64-S128"
target triple = "x86_64-pc-linux-gnu"

%struct.If_Par_t_ = type { i32, i32, i32, i32, i32, i32, float, float, i32, i32, i32, i32, i32, i32, i32, i32, i32, i32, i32, i32, i32, i32, i32, i32, i32, i32, i32, i32, i32, i32, i32, i32, i32, i32, i32, i32, i32, i32, i32, i32, i32, i32, i32, i32, i32, i32, i32, i32, i32, i32, ptr, i32, float, i32, i32, i32, i32, i32, i32, i32, i32, i32, i32, i32, i32, i32, i32, float, float, float, ptr, ptr, ptr, ptr, ptr, ptr, ptr, ptr, ptr }
%struct.Gia_Man_t_ = type { ptr, ptr, i32, i32, i32, i32, ptr, ptr, i32, i32, i32, ptr, ptr, %struct.Vec_Int_t_, %struct.Vec_Int_t_, i32, i32, i32, %struct.Vec_Int_t_, ptr, ptr, ptr, i32, i32, i32, i32, ptr, ptr, ptr, ptr, ptr, i32, i32, ptr, i32, ptr, ptr, ptr, ptr, ptr, ptr, ptr, ptr, ptr, ptr, ptr, ptr, ptr, ptr, ptr, ptr, ptr, ptr, %struct.Vec_Int_t_, %struct.Vec_Int_t_, ptr, ptr, ptr, ptr, ptr, ptr, ptr, ptr, ptr, ptr, ptr, ptr, ptr, ptr, ptr, ptr, ptr, ptr, ptr, ptr, ptr, i32, float, float, ptr, ptr, i32, ptr, ptr, ptr, ptr, ptr, ptr, ptr, ptr, ptr, ptr, ptr, ptr, ptr, ptr, ptr, i64, i64, ptr, ptr, i32, i32, i32, i32, i32, i32, i32, i32, i32, i32, i32, i32, ptr, ptr, ptr, ptr, ptr, ptr, ptr, ptr, i32, i32, i32, ptr, i32, i32, ptr, ptr, ptr, ptr, ptr, ptr, i32, i32, ptr, %struct.Vec_Int_t_, %struct.Vec_Int_t_, %struct.Vec_Int_t_, ptr, ptr, ptr, i32, i32, i32, i32, ptr, ptr, ptr, ptr, ptr }
%struct.Vec_Int_t_ = type { i32, i32, ptr }
%struct.If_Man_t_ = type { ptr, ptr, ptr, ptr, ptr, ptr, ptr, ptr, [5 x i32], i32, float, float, float, float, i32, float, i32, i32, [4 x ptr], ptr, i32, i32, i32, ptr, [3 x [32 x i32]], i32, i32, i32, ptr, ptr, ptr, ptr, ptr, ptr, ptr, i32, i32, i32, [16 x i32], i32, i32, i32, i32, ptr, ptr, ptr, ptr, ptr, i32, i32, [32 x i32], [32 x i32], i32, i32, i32, i32, ptr, [16 x ptr], [16 x ptr], [16 x ptr], [16 x ptr], [16 x ptr], [16 x ptr], [16 x ptr], ptr, ptr, ptr, ptr, [32 x i8], i32, i32, i32, [6 x i64], [2 x i32], [2 x i32], ptr, [15 x i32], ptr, ptr, ptr, [16 x i32], ptr, ptr, ptr, ptr, [2 x i32], [2 x i32], [2 x ptr], ptr }

; Function Attrs: inlinehint nounwind uwtable
define internal i32 @Gia_ManRegNum(ptr noundef %0) #3 {
  %2 = alloca ptr, align 8
  store ptr %0, ptr %2, align 8, !tbaa !40
  %3 = load ptr, ptr %2, align 8, !tbaa !40
  %4 = getelementptr inbounds nuw %struct.Gia_Man_t_, ptr %3, i32 0, i32 2
  %5 = load i32, ptr %4, align 8, !tbaa !114
  ret i32 %5
}

; Function Attrs: inlinehint nounwind uwtable
define internal ptr @Abc_UtilStrsav(ptr noundef %0) #3 {
  %2 = alloca ptr, align 8
  store ptr %0, ptr %2, align 8, !tbaa !106
  %3 = load ptr, ptr %2, align 8, !tbaa !106
  %4 = icmp ne ptr %3, null
  br i1 %4, label %5, label %13

5:                                                ; preds = %1
  %6 = load ptr, ptr %2, align 8, !tbaa !106
  %7 = call i64 @strlen(ptr noundef %6) #17
  %8 = add i64 %7, 1
  %9 = mul i64 1, %8
  %10 = call noalias ptr @malloc(i64 noundef %9) #16
  %11 = load ptr, ptr %2, align 8, !tbaa !106
  %12 = call ptr @strcpy(ptr noundef %10, ptr noundef %11) #14
  br label %14

13:                                               ; preds = %1
  br label %14

14:                                               ; preds = %13, %5
  %15 = phi ptr [ %12, %5 ], [ null, %13 ]
  ret ptr %15
}

; Function Attrs: nounwind uwtable
define ptr @Gia_ManPerformDsdBalance(ptr noundef %0, i32 noundef %1, i32 noundef %2, i32 noundef %3, i32 noundef %4) #0 {
  %6 = alloca ptr, align 8
  %7 = alloca i32, align 4
  %8 = alloca i32, align 4
  %9 = alloca i32, align 4
  %10 = alloca i32, align 4
  %11 = alloca ptr, align 8
  %12 = alloca ptr, align 8
  %13 = alloca %struct.If_Par_t_, align 8
  %14 = alloca ptr, align 8
  store ptr %0, ptr %6, align 8, !tbaa !40
  store i32 %1, ptr %7, align 4, !tbaa !42
  store i32 %2, ptr %8, align 4, !tbaa !42
  store i32 %3, ptr %9, align 4, !tbaa !42
  store i32 %4, ptr %10, align 4, !tbaa !42
  call void @llvm.lifetime.start.p0(i64 8, ptr %11) #14
  call void @llvm.lifetime.start.p0(i64 8, ptr %12) #14
  call void @llvm.lifetime.start.p0(i64 360, ptr %13) #14
  call void @llvm.lifetime.start.p0(i64 8, ptr %14) #14
  store ptr %13, ptr %14, align 8, !tbaa !7
  %15 = load ptr, ptr %14, align 8, !tbaa !7
  call void @If_ManSetDefaultPars(ptr noundef %15)
  %16 = load i32, ptr %8, align 4, !tbaa !42
  %17 = load ptr, ptr %14, align 8, !tbaa !7
  %18 = getelementptr inbounds nuw %struct.If_Par_t_, ptr %17, i32 0, i32 1
  store i32 %16, ptr %18, align 4, !tbaa !16
  %19 = load i32, ptr %9, align 4, !tbaa !42
  %20 = load ptr, ptr %14, align 8, !tbaa !7
  %21 = getelementptr inbounds nuw %struct.If_Par_t_, ptr %20, i32 0, i32 8
  store i32 %19, ptr %21, align 8, !tbaa !344
  %22 = load i32, ptr %10, align 4, !tbaa !42
  %23 = load ptr, ptr %14, align 8, !tbaa !7
  %24 = getelementptr inbounds nuw %struct.If_Par_t_, ptr %23, i32 0, i32 48
  store i32 %22, ptr %24, align 8, !tbaa !29
  %25 = load i32, ptr %7, align 4, !tbaa !42
  %26 = load ptr, ptr %14, align 8, !tbaa !7
  %27 = getelementptr inbounds nuw %struct.If_Par_t_, ptr %26, i32 0, i32 0
  store i32 %25, ptr %27, align 8, !tbaa !9
  %28 = load ptr, ptr %14, align 8, !tbaa !7
  %29 = getelementptr inbounds nuw %struct.If_Par_t_, ptr %28, i32 0, i32 24
  store i32 1, ptr %29, align 8, !tbaa !175
  %30 = load ptr, ptr %14, align 8, !tbaa !7
  %31 = getelementptr inbounds nuw %struct.If_Par_t_, ptr %30, i32 0, i32 36
  store i32 1, ptr %31, align 8, !tbaa !274
  %32 = load ptr, ptr %14, align 8, !tbaa !7
  %33 = getelementptr inbounds nuw %struct.If_Par_t_, ptr %32, i32 0, i32 21
  store i32 1, ptr %33, align 4, !tbaa !28
  %34 = load ptr, ptr %14, align 8, !tbaa !7
  %35 = getelementptr inbounds nuw %struct.If_Par_t_, ptr %34, i32 0, i32 55
  store i32 1, ptr %35, align 8, !tbaa !31
  %36 = load ptr, ptr %14, align 8, !tbaa !7
  %37 = getelementptr inbounds nuw %struct.If_Par_t_, ptr %36, i32 0, i32 16
  store i32 0, ptr %37, align 8, !tbaa !24
  %38 = call ptr (...) @Abc_FrameReadManDsd2()
  %39 = icmp eq ptr %38, null
  br i1 %39, label %40, label %45

40:                                               ; preds = %5
  %41 = load ptr, ptr %14, align 8, !tbaa !7
  %42 = getelementptr inbounds nuw %struct.If_Par_t_, ptr %41, i32 0, i32 0
  %43 = load i32, ptr %42, align 8, !tbaa !9
  %44 = call ptr @If_DsdManAlloc(i32 noundef %43, i32 noundef 0)
  call void @Abc_FrameSetManDsd2(ptr noundef %44)
  br label %45

45:                                               ; preds = %40, %5
  %46 = load ptr, ptr %6, align 8, !tbaa !40
  %47 = load ptr, ptr %14, align 8, !tbaa !7
  %48 = call ptr @Gia_ManToIf(ptr noundef %46, ptr noundef %47)
  store ptr %48, ptr %12, align 8, !tbaa !129
  %49 = call ptr (...) @Abc_FrameReadManDsd2()
  %50 = load ptr, ptr %12, align 8, !tbaa !129
  %51 = getelementptr inbounds nuw %struct.If_Man_t_, ptr %50, i32 0, i32 56
  store ptr %49, ptr %51, align 8, !tbaa !218
  %52 = load ptr, ptr %14, align 8, !tbaa !7
  %53 = getelementptr inbounds nuw %struct.If_Par_t_, ptr %52, i32 0, i32 24
  %54 = load i32, ptr %53, align 8, !tbaa !175
  %55 = icmp ne i32 %54, 0
  br i1 %55, label %56, label %63

56:                                               ; preds = %45
  %57 = load ptr, ptr %12, align 8, !tbaa !129
  %58 = getelementptr inbounds nuw %struct.If_Man_t_, ptr %57, i32 0, i32 56
  %59 = load ptr, ptr %58, align 8, !tbaa !218
  %60 = load ptr, ptr %14, align 8, !tbaa !7
  %61 = getelementptr inbounds nuw %struct.If_Par_t_, ptr %60, i32 0, i32 0
  %62 = load i32, ptr %61, align 8, !tbaa !9
  call void @If_DsdManAllocIsops(ptr noundef %59, i32 noundef %62)
  br label %63

63:                                               ; preds = %56, %45
  %64 = load ptr, ptr %12, align 8, !tbaa !129
  %65 = call i32 @If_ManPerformMapping(ptr noundef %64)
  %66 = load ptr, ptr %12, align 8, !tbaa !129
  %67 = call ptr @Gia_ManFromIfAig(ptr noundef %66)
  store ptr %67, ptr %11, align 8, !tbaa !40
  %68 = load ptr, ptr %12, align 8, !tbaa !129
  call void @If_ManStop(ptr noundef %68)
  %69 = load ptr, ptr %11, align 8, !tbaa !40
  %70 = load ptr, ptr %6, align 8, !tbaa !40
  call void @Gia_ManTransferTiming(ptr noundef %69, ptr noundef %70)
  %71 = load ptr, ptr %6, align 8, !tbaa !40
  %72 = getelementptr inbounds nuw %struct.Gia_Man_t_, ptr %71, i32 0, i32 0
  %73 = load ptr, ptr %72, align 8, !tbaa !112
  %74 = call ptr @Abc_UtilStrsav(ptr noundef %73)
  %75 = load ptr, ptr %11, align 8, !tbaa !40
  %76 = getelementptr inbounds nuw %struct.Gia_Man_t_, ptr %75, i32 0, i32 0
  store ptr %74, ptr %76, align 8, !tbaa !112
  %77 = load ptr, ptr %6, align 8, !tbaa !40
  %78 = getelementptr inbounds nuw %struct.Gia_Man_t_, ptr %77, i32 0, i32 1
  %79 = load ptr, ptr %78, align 8, !tbaa !330
  %80 = call ptr @Abc_UtilStrsav(ptr noundef %79)
  %81 = load ptr, ptr %11, align 8, !tbaa !40
  %82 = getelementptr inbounds nuw %struct.Gia_Man_t_, ptr %81, i32 0, i32 1
  store ptr %80, ptr %82, align 8, !tbaa !330
  %83 = load ptr, ptr %11, align 8, !tbaa !40
  %84 = load ptr, ptr %6, align 8, !tbaa !40
  %85 = call i32 @Gia_ManRegNum(ptr noundef %84)
  call void @Gia_ManSetRegNum(ptr noundef %83, i32 noundef %85)
  %86 = load ptr, ptr %11, align 8, !tbaa !40
  call void @llvm.lifetime.end.p0(i64 8, ptr %14) #14
  call void @llvm.lifetime.end.p0(i64 360, ptr %13) #14
  call void @llvm.lifetime.end.p0(i64 8, ptr %12) #14
  call void @llvm.lifetime.end.p0(i64 8, ptr %11) #14
  ret ptr %86
}