; Function Attrs: nounwind uwtable
define ptr @Gia_ManPerformDsdBalance(ptr noundef %0, i32 noundef %1, i32 noundef %2, i32 noundef %3, i32 noundef %4) local_unnamed_addr #4 {
  %6 = alloca %struct.If_Par_t_, align 8
  call void @llvm.lifetime.start.p0(i64 360, ptr nonnull %6) #27
  call void @If_ManSetDefaultPars(ptr noundef nonnull %6) #27
  %7 = getelementptr inbounds nuw i8, ptr %6, i64 4
  store i32 %2, ptr %7, align 4, !tbaa !13
  %8 = getelementptr inbounds nuw i8, ptr %6, i64 32
  store i32 %3, ptr %8, align 8, !tbaa !329
  %9 = getelementptr inbounds nuw i8, ptr %6, i64 192
  store i32 %4, ptr %9, align 8, !tbaa !330
  store i32 %1, ptr %6, align 8, !tbaa !3
  %10 = getelementptr inbounds nuw i8, ptr %6, i64 96
  store i32 1, ptr %10, align 8, !tbaa !153
  %11 = getelementptr inbounds nuw i8, ptr %6, i64 144
  store i32 1, ptr %11, align 8, !tbaa !265
  %12 = getelementptr inbounds nuw i8, ptr %6, i64 84
  store i32 1, ptr %12, align 4, !tbaa !22
  %13 = getelementptr inbounds nuw i8, ptr %6, i64 224
  store i32 1, ptr %13, align 8, !tbaa !266
  %14 = getelementptr inbounds nuw i8, ptr %6, i64 64
  store i32 0, ptr %14, align 8, !tbaa !20
  %15 = call ptr (...) @Abc_FrameReadManDsd2() #27
  %16 = icmp eq ptr %15, null
  br i1 %16, label %17, label %20

17:                                               ; preds = %5
  %18 = load i32, ptr %6, align 8, !tbaa !3
  %19 = call ptr @If_DsdManAlloc(i32 noundef %18, i32 noundef 0) #27
  call void @Abc_FrameSetManDsd2(ptr noundef %19) #27
  br label %20

20:                                               ; preds = %17, %5
  %21 = call ptr @Gia_ManToIf(ptr noundef %0, ptr noundef nonnull %6)
  %22 = call ptr (...) @Abc_FrameReadManDsd2() #27
  %23 = getelementptr inbounds nuw i8, ptr %21, i64 1056
  store ptr %22, ptr %23, align 8, !tbaa !205
  %24 = load i32, ptr %10, align 8, !tbaa !153
  %.not = icmp eq i32 %24, 0
  br i1 %.not, label %27, label %25

25:                                               ; preds = %20
  %26 = load i32, ptr %6, align 8, !tbaa !3
  call void @If_DsdManAllocIsops(ptr noundef %22, i32 noundef %26) #27
  br label %27

27:                                               ; preds = %25, %20
  %28 = call i32 @If_ManPerformMapping(ptr noundef nonnull %21) #27
  %29 = call ptr @Gia_ManFromIfAig(ptr noundef nonnull %21)
  call void @If_ManStop(ptr noundef nonnull %21) #27
  call void @Gia_ManTransferTiming(ptr noundef %29, ptr noundef %0)
  %30 = load ptr, ptr %0, align 8, !tbaa !92
  %.not.i = icmp eq ptr %30, null
  br i1 %.not.i, label %Abc_UtilStrsav.exit, label %31

31:                                               ; preds = %27
  %32 = call i64 @strlen(ptr noundef nonnull readonly dereferenceable(1) %30) #30
  %33 = add i64 %32, 1
  %34 = call noalias ptr @malloc(i64 noundef %33) #29
  %35 = call ptr @strcpy(ptr noundef nonnull dereferenceable(1) %34, ptr noundef nonnull readonly dereferenceable(1) %30) #27
  br label %Abc_UtilStrsav.exit

Abc_UtilStrsav.exit:                              ; preds = %27, %31
  %36 = phi ptr [ %34, %31 ], [ null, %27 ]
  store ptr %36, ptr %29, align 8, !tbaa !92
  %37 = getelementptr inbounds nuw i8, ptr %0, i64 8
  %38 = load ptr, ptr %37, align 8, !tbaa !315
  %.not.i32 = icmp eq ptr %38, null
  br i1 %.not.i32, label %Abc_UtilStrsav.exit33, label %39

39:                                               ; preds = %Abc_UtilStrsav.exit
  %40 = call i64 @strlen(ptr noundef nonnull readonly dereferenceable(1) %38) #30
  %41 = add i64 %40, 1
  %42 = call noalias ptr @malloc(i64 noundef %41) #29
  %43 = call ptr @strcpy(ptr noundef nonnull dereferenceable(1) %42, ptr noundef nonnull readonly dereferenceable(1) %38) #27
  br label %Abc_UtilStrsav.exit33

Abc_UtilStrsav.exit33:                            ; preds = %Abc_UtilStrsav.exit, %39
  %44 = phi ptr [ %42, %39 ], [ null, %Abc_UtilStrsav.exit ]
  %45 = getelementptr inbounds nuw i8, ptr %29, i64 8
  store ptr %44, ptr %45, align 8, !tbaa !315
  %46 = getelementptr i8, ptr %0, i64 16
  %.val = load i32, ptr %46, align 8, !tbaa !93
  call void @Gia_ManSetRegNum(ptr noundef nonnull %29, i32 noundef %.val) #27
  call void @llvm.lifetime.end.p0(i64 360, ptr nonnull %6) #27
  ret ptr %29
}